; Function Attrs: mustprogress nounwind uwtable
define internal fastcc void @_ZN12_GLOBAL__N_128CheckVarsEscapingDeclContext9VisitExprEPKN5clang4ExprE(ptr noundef nonnull align 8 dereferenceable(288) %0, ptr noundef %1) unnamed_addr #1 align 2 {
  %3 = alloca %"class.llvm::iterator_range.1949", align 8
  %4 = alloca %"struct.clang::ConstStmtIterator", align 8
  %.not = icmp eq ptr %1, null
  br i1 %.not, label %43, label %5

5:                                                ; preds = %2
  %6 = getelementptr inbounds nuw i8, ptr %0, i64 280
  %7 = load i8, ptr %6, align 8
  %8 = and i8 %7, 1
  %9 = getelementptr inbounds nuw i8, ptr %1, i64 1
  %10 = load i16, ptr %9, align 1
  %11 = and i16 %10, 3
  %12 = icmp eq i16 %11, 1
  br i1 %12, label %14, label %13

13:                                               ; preds = %5
  store i8 0, ptr %6, align 8
  br label %14

14:                                               ; preds = %13, %5
  call void @llvm.lifetime.start.p0(i64 48, ptr nonnull %3)
  call void @_ZN5clang4Stmt8childrenEv(ptr dead_on_unwind nonnull writable sret(%"class.llvm::iterator_range.1949") align 8 %3, ptr noundef nonnull align 8 dereferenceable(8) %1) #17, !noalias !314
  call void @llvm.memcpy.p0.p0.i64(ptr noundef nonnull align 8 dereferenceable(24) %4, ptr noundef nonnull align 8 dereferenceable(24) %3, i64 24, i1 false)
  %15 = getelementptr inbounds nuw i8, ptr %3, i64 24
  %.sroa.211.24.copyload = load ptr, ptr %15, align 8
  %.sroa.4.24..sroa_idx = getelementptr inbounds i8, ptr %3, i64 32
  %.sroa.4.24.copyload = load i64, ptr %.sroa.4.24..sroa_idx, align 8
  call void @llvm.lifetime.end.p0(i64 48, ptr nonnull %3)
  %16 = getelementptr inbounds nuw i8, ptr %4, i64 8
  %17 = load ptr, ptr %4, align 8
  %18 = icmp ne ptr %17, %.sroa.211.24.copyload
  %19 = load i64, ptr %16, align 8
  %20 = icmp ne i64 %19, %.sroa.4.24.copyload
  %.not3.i12 = select i1 %18, i1 true, i1 %20
  br i1 %.not3.i12, label %.lr.ph, label %._crit_edge

.lr.ph:                                           ; preds = %14, %_ZN5clang16StmtIteratorImplINS_17ConstStmtIteratorEPKNS_4StmtEEppEv.exit
  %21 = phi i64 [ %41, %_ZN5clang16StmtIteratorImplINS_17ConstStmtIteratorEPKNS_4StmtEEppEv.exit ], [ %19, %14 ]
  %22 = phi ptr [ %39, %_ZN5clang16StmtIteratorImplINS_17ConstStmtIteratorEPKNS_4StmtEEppEv.exit ], [ %17, %14 ]
  %23 = and i64 %21, 3
  %24 = icmp eq i64 %23, 0
  br i1 %24, label %_ZNK5clang16StmtIteratorImplINS_17ConstStmtIteratorEPKNS_4StmtEEdeEv.exit, label %25

25:                                               ; preds = %.lr.ph
  %26 = call noundef nonnull align 8 dereferenceable(8) ptr @_ZNK5clang16StmtIteratorBase11GetDeclExprEv(ptr noundef nonnull align 8 dereferenceable(24) %4) #17
  br label %_ZNK5clang16StmtIteratorImplINS_17ConstStmtIteratorEPKNS_4StmtEEdeEv.exit

_ZNK5clang16StmtIteratorImplINS_17ConstStmtIteratorEPKNS_4StmtEEdeEv.exit: ; preds = %.lr.ph, %25
  %.in.i = phi ptr [ %26, %25 ], [ %22, %.lr.ph ]
  %27 = load ptr, ptr %.in.i, align 8
  %.not9 = icmp eq ptr %27, null
  br i1 %.not9, label %29, label %28

28:                                               ; preds = %_ZNK5clang16StmtIteratorImplINS_17ConstStmtIteratorEPKNS_4StmtEEdeEv.exit
  call fastcc void @_ZN5clang15StmtVisitorBaseIN4llvm14make_const_ptrEN12_GLOBAL__N_128CheckVarsEscapingDeclContextEvJEE5VisitEPKNS_4StmtE(ptr noundef nonnull align 1 dereferenceable(1) %0, ptr noundef nonnull %27)
  br label %29

29:                                               ; preds = %_ZNK5clang16StmtIteratorImplINS_17ConstStmtIteratorEPKNS_4StmtEEdeEv.exit, %28
  %30 = load i64, ptr %16, align 8
  %31 = and i64 %30, 3
  %32 = icmp eq i64 %31, 0
  br i1 %32, label %33, label %36

33:                                               ; preds = %29
  %34 = load ptr, ptr %4, align 8
  %35 = getelementptr inbounds i8, ptr %34, i64 8
  store ptr %35, ptr %4, align 8
  br label %_ZN5clang16StmtIteratorImplINS_17ConstStmtIteratorEPKNS_4StmtEEppEv.exit

36:                                               ; preds = %29
  %.not.i = icmp ult i64 %30, 4
  br i1 %.not.i, label %38, label %37

37:                                               ; preds = %36
  call void @_ZN5clang16StmtIteratorBase6NextVAEv(ptr noundef nonnull align 8 dereferenceable(24) %4) #17
  br label %_ZN5clang16StmtIteratorImplINS_17ConstStmtIteratorEPKNS_4StmtEEppEv.exit

38:                                               ; preds = %36
  call void @_ZN5clang16StmtIteratorBase8NextDeclEb(ptr noundef nonnull align 8 dereferenceable(24) %4, i1 noundef zeroext true) #17
  br label %_ZN5clang16StmtIteratorImplINS_17ConstStmtIteratorEPKNS_4StmtEEppEv.exit

_ZN5clang16StmtIteratorImplINS_17ConstStmtIteratorEPKNS_4StmtEEppEv.exit: ; preds = %33, %37, %38
  %39 = load ptr, ptr %4, align 8
  %40 = icmp ne ptr %39, %.sroa.211.24.copyload
  %41 = load i64, ptr %16, align 8
  %42 = icmp ne i64 %41, %.sroa.4.24.copyload
  %.not3.i = select i1 %40, i1 true, i1 %42
  br i1 %.not3.i, label %.lr.ph, label %._crit_edge

._crit_edge:                                      ; preds = %_ZN5clang16StmtIteratorImplINS_17ConstStmtIteratorEPKNS_4StmtEEppEv.exit, %14
  store i8 %8, ptr %6, align 8
  br label %43

43:                                               ; preds = %2, %._crit_edge
  ret void
}